; Function Attrs: nounwind uwtable
define ptr @l_Lean_Compiler_getInlineAttribute_x3f(ptr noundef %0, ptr noundef %1) local_unnamed_addr #1 {
  %3 = load i8, ptr @l_Lean_Compiler_instInhabitedInlineAttributeKind, align 1, !tbaa !18
  %4 = load ptr, ptr @l_Lean_Compiler_setInlineAttribute___closed__1, align 8, !tbaa !10
  %5 = zext i8 %3 to i64
  %6 = shl nuw nsw i64 %5, 1
  %7 = or disjoint i64 %6, 1
  %8 = inttoptr i64 %7 to ptr
  %9 = tail call ptr @l_Lean_EnumAttributes_getValue___rarg(ptr noundef nonnull %8, ptr noundef %4, ptr noundef %0, ptr noundef %1) #7
  ret ptr %9
}